; Function Attrs: mustprogress uwtable
define void @_ZN3zmq19hello_msg_session_tC2EPNS_11io_thread_tEbPNS_13socket_base_tERKNS_9options_tEPNS_9address_tE(ptr noundef nonnull align 8 dereferenceable(1632) %0, ptr noundef %1, i1 noundef zeroext %2, ptr noundef %3, ptr noundef nonnull align 8 dereferenceable(1336) %4, ptr noundef %5) unnamed_addr #0 align 2 {
  tail call void @_ZN3zmq14session_base_tC2EPNS_11io_thread_tEbPNS_13socket_base_tERKNS_9options_tEPNS_9address_tE(ptr noundef nonnull align 8 dereferenceable(1624) %0, ptr noundef %1, i1 noundef zeroext %2, ptr noundef %3, ptr noundef nonnull align 8 dereferenceable(1336) %4, ptr noundef %5)
  store ptr getelementptr inbounds nuw inrange(-16, 256) (i8, ptr @_ZTVN3zmq19hello_msg_session_tE, i64 16), ptr %0, align 8, !tbaa !54
  %7 = getelementptr inbounds nuw i8, ptr %0, i64 1448
  store ptr getelementptr inbounds nuw inrange(-16, 40) (i8, ptr @_ZTVN3zmq19hello_msg_session_tE, i64 288), ptr %7, align 8, !tbaa !54
  %8 = getelementptr inbounds nuw i8, ptr %0, i64 1464
  store ptr getelementptr inbounds nuw inrange(-16, 48) (i8, ptr @_ZTVN3zmq19hello_msg_session_tE, i64 344), ptr %8, align 8, !tbaa !54
  %9 = getelementptr inbounds nuw i8, ptr %0, i64 1624
  store i8 1, ptr %9, align 8, !tbaa !131
  ret void
}